target datalayout = "e-m:e-p270:32:32-p271:32:32-p272:64:64-i64:64-i128:128-f80:128-n8:16:32:64-S128"
target triple = "x86_64-pc-linux-gnu"

%struct.cb_cleanup_dir = type { ptr, i8, ptr }

@cleanup_dir_list = internal global ptr null, align 8

; Function Attrs: nounwind uwtable
define internal void @reset_directory_cleanup_list() #0 {
  %1 = alloca ptr, align 8
  br label %2

2:                                                ; preds = %5, %0
  %3 = load ptr, ptr @cleanup_dir_list, align 8
  %4 = icmp ne ptr %3, null
  br i1 %4, label %5, label %11

5:                                                ; preds = %2
  call void @llvm.lifetime.start.p0(i64 8, ptr %1) #9
  %6 = load ptr, ptr @cleanup_dir_list, align 8
  store ptr %6, ptr %1, align 8
  %7 = load ptr, ptr @cleanup_dir_list, align 8
  %8 = getelementptr inbounds nuw %struct.cb_cleanup_dir, ptr %7, i32 0, i32 2
  %9 = load ptr, ptr %8, align 8
  store ptr %9, ptr @cleanup_dir_list, align 8
  %10 = load ptr, ptr %1, align 8
  call void @pfree(ptr noundef %10)
  call void @llvm.lifetime.end.p0(i64 8, ptr %1) #9
  br label %2, !llvm.loop !19

11:                                               ; preds = %2
  ret void
}