; Function Attrs: nounwind uwtable
define internal fastcc void @reset_directory_cleanup_list() unnamed_addr #3 {
  %1 = load ptr, ptr @cleanup_dir_list, align 8
  %.not1 = icmp eq ptr %1, null
  br i1 %.not1, label %._crit_edge, label %.lr.ph

.lr.ph:                                           ; preds = %0, %.lr.ph
  %2 = phi ptr [ %5, %.lr.ph ], [ %1, %0 ]
  %3 = getelementptr inbounds nuw i8, ptr %2, i64 16
  %4 = load ptr, ptr %3, align 8
  store ptr %4, ptr @cleanup_dir_list, align 8
  tail call void @pfree(ptr noundef nonnull %2) #12
  %5 = load ptr, ptr @cleanup_dir_list, align 8
  %.not = icmp eq ptr %5, null
  br i1 %.not, label %._crit_edge, label %.lr.ph, !llvm.loop !21

._crit_edge:                                      ; preds = %.lr.ph, %0
  ret void
}